; Function Attrs: mustprogress nofree norecurse nosync nounwind willreturn memory(readwrite, inaccessiblemem: none) uwtable
define range(i32 -2, 1) i32 @deflateSetHeader(ptr noundef readonly %0, ptr noundef %1) local_unnamed_addr #3 {
  %3 = icmp eq ptr %0, null
  br i1 %3, label %13, label %4

4:                                                ; preds = %2
  %5 = getelementptr inbounds nuw i8, ptr %0, i64 56
  %6 = load ptr, ptr %5, align 8, !tbaa !16
  %7 = icmp eq ptr %6, null
  br i1 %7, label %13, label %8

8:                                                ; preds = %4
  %9 = getelementptr inbounds nuw i8, ptr %6, i64 44
  %10 = load i32, ptr %9, align 4, !tbaa !26
  %.not = icmp eq i32 %10, 2
  br i1 %.not, label %11, label %13

11:                                               ; preds = %8
  %12 = getelementptr inbounds nuw i8, ptr %6, i64 48
  store ptr %1, ptr %12, align 8, !tbaa !27
  br label %13

13:                                               ; preds = %8, %2, %4, %11
  %.0 = phi i32 [ 0, %11 ], [ -2, %4 ], [ -2, %2 ], [ -2, %8 ]
  ret i32 %.0
}